; ModuleID = '16/1319.c'
source_filename = "16/1319.c"
target datalayout = "e-m:e-p270:32:32-p271:32:32-p272:64:64-i64:64-f80:128-n8:16:32:64-S128"
target triple = "x86_64-pc-linux-gnu"

@.str = private unnamed_addr constant [3 x i8] c"%c\00", align 1

; Function Attrs: noinline nounwind uwtable
define dso_local void @reverse() #0 {
  %1 = alloca i32, align 4
  %2 = call i32 @getchar()
  store i32 %2, i32* %1, align 4
  %3 = icmp eq i32 %2, 10
  br i1 %3, label %4, label %5

4:                                                ; preds = %0
  br label %8

5:                                                ; preds = %0
  call void @reverse()
  %6 = load i32, i32* %1, align 4
  %7 = call i32 (i8*, ...) @printf(i8* getelementptr inbounds ([3 x i8], [3 x i8]* @.str, i64 0, i64 0), i32 %6)
  br label %8

8:                                                ; preds = %5, %4
  ret void
}

declare dso_local i32 @getchar() #1

declare dso_local i32 @printf(i8*, ...) #1

; Function Attrs: noinline nounwind uwtable
define dso_local i32 @main() #0 {
  %1 = alloca i32, align 4
  store i32 0, i32* %1, align 4
  call void @reverse()
  ret i32 0
}


!llvm.module.flags = !{!0}
!llvm.ident = !{!1}

!0 = !{i32 1, !"wchar_size", i32 4}
!1 = !{!"clang version 10.0.0-4ubuntu1 "}
